target datalayout = "e-m:e-p270:32:32-p271:32:32-p272:64:64-i64:64-i128:128-f80:128-n8:16:32:64-S128"
target triple = "x86_64-pc-linux-gnu"

@hf_subdoc_flags = internal global i32 0, align 4
@hf_multipath_opcode = internal global i32 0, align 4
@hf_multipath_pathlen = internal global i32 0, align 4
@hf_multipath_path = internal global i32 0, align 4
@hf_multipath_valuelen = internal global i32 0, align 4
@hf_multipath_value = internal global i32 0, align 4
@ett_extras_flags = internal global i32 0, align 4
@ett_multipath = internal global i32 0, align 4
@subdoc_flags = internal constant [5 x ptr] [ptr @hf_subdoc_flags_mkdirp, ptr @hf_subdoc_flags_xattrpath, ptr @hf_subdoc_flags_expandmacros, ptr @hf_subdoc_flags_reserved, ptr null], align 16
@.str.807 = private unnamed_addr constant [21 x i8] c"Mutation spec [ %u ]\00", align 1
@.str.808 = private unnamed_addr constant [19 x i8] c"Lookup spec [ %u ]\00", align 1

; Function Attrs: null_pointer_is_valid sspstrong uwtable
define internal void @dissect_multipath_value(ptr noundef %0, ptr noundef %1, ptr noundef %2, i32 noundef %3, i32 noundef %4, i1 noundef zeroext %5, i1 noundef zeroext %6) #0 {
  %8 = alloca ptr, align 8
  %9 = alloca ptr, align 8
  %10 = alloca ptr, align 8
  %11 = alloca i32, align 4
  %12 = alloca i32, align 4
  %13 = alloca i8, align 1
  %14 = alloca i8, align 1
  %15 = alloca i32, align 4
  %16 = alloca i32, align 4
  %17 = alloca ptr, align 8
  %18 = alloca ptr, align 8
  %19 = alloca i32, align 4
  %20 = alloca i32, align 4
  %21 = alloca i32, align 4
  %22 = alloca i32, align 4
  store ptr %0, ptr %8, align 8
  store ptr %1, ptr %9, align 8
  store ptr %2, ptr %10, align 8
  store i32 %3, ptr %11, align 4
  store i32 %4, ptr %12, align 4
  %23 = zext i1 %5 to i8
  store i8 %23, ptr %13, align 1
  %24 = zext i1 %6 to i8
  store i8 %24, ptr %14, align 1
  call void @llvm.lifetime.start.p0(i64 4, ptr %15) #7
  %25 = load i32, ptr %11, align 4
  %26 = load i32, ptr %12, align 4
  %27 = add i32 %25, %26
  store i32 %27, ptr %15, align 4
  call void @llvm.lifetime.start.p0(i64 4, ptr %16) #7
  store i32 0, ptr %16, align 4
  call void @llvm.lifetime.start.p0(i64 8, ptr %17) #7
  call void @llvm.lifetime.start.p0(i64 8, ptr %18) #7
  %28 = load i8, ptr %14, align 1, !range !6, !noundef !7
  %29 = trunc i8 %28 to i1
  br i1 %29, label %30, label %117

30:                                               ; preds = %7
  call void @llvm.lifetime.start.p0(i64 4, ptr %19) #7
  %31 = load i8, ptr %13, align 1, !range !6, !noundef !7
  %32 = trunc i8 %31 to i1
  %33 = select i1 %32, i32 8, i32 4
  store i32 %33, ptr %19, align 4
  br label %34

34:                                               ; preds = %109, %30
  %35 = load i32, ptr %11, align 4
  %36 = load i32, ptr %19, align 4
  %37 = add i32 %35, %36
  %38 = load i32, ptr %15, align 4
  %39 = icmp sle i32 %37, %38
  br i1 %39, label %40, label %116

40:                                               ; preds = %34
  call void @llvm.lifetime.start.p0(i64 4, ptr %20) #7
  call void @llvm.lifetime.start.p0(i64 4, ptr %21) #7
  store i32 0, ptr %21, align 4
  call void @llvm.lifetime.start.p0(i64 4, ptr %22) #7
  %41 = load i32, ptr %11, align 4
  store i32 %41, ptr %22, align 4
  %42 = load ptr, ptr %10, align 8
  %43 = load ptr, ptr %8, align 8
  %44 = load i32, ptr %11, align 4
  %45 = load i32, ptr @ett_multipath, align 4
  %46 = load i8, ptr %13, align 1, !range !6, !noundef !7
  %47 = trunc i8 %46 to i1
  %48 = select i1 %47, ptr @.str.807, ptr @.str.808
  %49 = load i32, ptr %16, align 4
  %50 = call ptr (ptr, ptr, i32, i32, i32, ptr, ptr, ...) @proto_tree_add_subtree_format(ptr noundef %42, ptr noundef %43, i32 noundef %44, i32 noundef -1, i32 noundef %45, ptr noundef %18, ptr noundef %48, i32 noundef %49)
  store ptr %50, ptr %17, align 8
  %51 = load ptr, ptr %18, align 8
  %52 = load i32, ptr @hf_multipath_opcode, align 4
  %53 = load ptr, ptr %8, align 8
  %54 = load i32, ptr %11, align 4
  %55 = call ptr @proto_tree_add_item(ptr noundef %51, i32 noundef %52, ptr noundef %53, i32 noundef %54, i32 noundef 1, i32 noundef 0)
  %56 = load i32, ptr %11, align 4
  %57 = add i32 %56, 1
  store i32 %57, ptr %11, align 4
  %58 = load ptr, ptr %18, align 8
  %59 = load ptr, ptr %8, align 8
  %60 = load i32, ptr %11, align 4
  %61 = load i32, ptr @hf_subdoc_flags, align 4
  %62 = load i32, ptr @ett_extras_flags, align 4
  %63 = call ptr @proto_tree_add_bitmask(ptr noundef %58, ptr noundef %59, i32 noundef %60, i32 noundef %61, i32 noundef %62, ptr noundef @subdoc_flags, i32 noundef 0)
  %64 = load i32, ptr %11, align 4
  %65 = add i32 %64, 1
  store i32 %65, ptr %11, align 4
  %66 = load ptr, ptr %18, align 8
  %67 = load i32, ptr @hf_multipath_pathlen, align 4
  %68 = load ptr, ptr %8, align 8
  %69 = load i32, ptr %11, align 4
  %70 = call ptr @proto_tree_add_item_ret_uint(ptr noundef %66, i32 noundef %67, ptr noundef %68, i32 noundef %69, i32 noundef 2, i32 noundef 0, ptr noundef %20)
  %71 = load i32, ptr %11, align 4
  %72 = add i32 %71, 2
  store i32 %72, ptr %11, align 4
  %73 = load i8, ptr %13, align 1, !range !6, !noundef !7
  %74 = trunc i8 %73 to i1
  br i1 %74, label %75, label %83

75:                                               ; preds = %40
  %76 = load ptr, ptr %18, align 8
  %77 = load i32, ptr @hf_multipath_valuelen, align 4
  %78 = load ptr, ptr %8, align 8
  %79 = load i32, ptr %11, align 4
  %80 = call ptr @proto_tree_add_item_ret_uint(ptr noundef %76, i32 noundef %77, ptr noundef %78, i32 noundef %79, i32 noundef 4, i32 noundef 0, ptr noundef %21)
  %81 = load i32, ptr %11, align 4
  %82 = add i32 %81, 4
  store i32 %82, ptr %11, align 4
  br label %83

83:                                               ; preds = %75, %40
  %84 = load i32, ptr %20, align 4
  %85 = icmp ne i32 %84, 0
  br i1 %85, label %86, label %96

86:                                               ; preds = %83
  %87 = load ptr, ptr %18, align 8
  %88 = load i32, ptr @hf_multipath_path, align 4
  %89 = load ptr, ptr %8, align 8
  %90 = load i32, ptr %11, align 4
  %91 = load i32, ptr %20, align 4
  %92 = call ptr @proto_tree_add_item(ptr noundef %87, i32 noundef %88, ptr noundef %89, i32 noundef %90, i32 noundef %91, i32 noundef 0)
  %93 = load i32, ptr %20, align 4
  %94 = load i32, ptr %11, align 4
  %95 = add i32 %94, %93
  store i32 %95, ptr %11, align 4
  br label %96

96:                                               ; preds = %86, %83
  %97 = load i32, ptr %21, align 4
  %98 = icmp ugt i32 %97, 0
  br i1 %98, label %99, label %109

99:                                               ; preds = %96
  %100 = load ptr, ptr %18, align 8
  %101 = load i32, ptr @hf_multipath_value, align 4
  %102 = load ptr, ptr %8, align 8
  %103 = load i32, ptr %11, align 4
  %104 = load i32, ptr %21, align 4
  %105 = call ptr @proto_tree_add_item(ptr noundef %100, i32 noundef %101, ptr noundef %102, i32 noundef %103, i32 noundef %104, i32 noundef 0)
  %106 = load i32, ptr %21, align 4
  %107 = load i32, ptr %11, align 4
  %108 = add i32 %107, %106
  store i32 %108, ptr %11, align 4
  br label %109

109:                                              ; preds = %99, %96
  %110 = load ptr, ptr %17, align 8
  %111 = load i32, ptr %11, align 4
  %112 = load i32, ptr %22, align 4
  %113 = sub i32 %111, %112
  call void @proto_item_set_len(ptr noundef %110, i32 noundef %113)
  %114 = load i32, ptr %16, align 4
  %115 = add i32 %114, 1
  store i32 %115, ptr %16, align 4
  call void @llvm.lifetime.end.p0(i64 4, ptr %22) #7
  call void @llvm.lifetime.end.p0(i64 4, ptr %21) #7
  call void @llvm.lifetime.end.p0(i64 4, ptr %20) #7
  br label %34, !llvm.loop !20

116:                                              ; preds = %34
  call void @llvm.lifetime.end.p0(i64 4, ptr %19) #7
  br label %133

117:                                              ; preds = %7
  %118 = load i8, ptr %13, align 1, !range !6, !noundef !7
  %119 = trunc i8 %118 to i1
  br i1 %119, label %120, label %126

120:                                              ; preds = %117
  %121 = load ptr, ptr %8, align 8
  %122 = load ptr, ptr %9, align 8
  %123 = load ptr, ptr %10, align 8
  %124 = load i32, ptr %11, align 4
  %125 = load i32, ptr %12, align 4
  call void @dissect_multipath_mutation_response(ptr noundef %121, ptr noundef %122, ptr noundef %123, i32 noundef %124, i32 noundef %125)
  br label %132

126:                                              ; preds = %117
  %127 = load ptr, ptr %8, align 8
  %128 = load ptr, ptr %9, align 8
  %129 = load ptr, ptr %10, align 8
  %130 = load i32, ptr %11, align 4
  %131 = load i32, ptr %12, align 4
  call void @dissect_multipath_lookup_response(ptr noundef %127, ptr noundef %128, ptr noundef %129, i32 noundef %130, i32 noundef %131)
  br label %132

132:                                              ; preds = %126, %120
  br label %133

133:                                              ; preds = %132, %116
  call void @llvm.lifetime.end.p0(i64 8, ptr %18) #7
  call void @llvm.lifetime.end.p0(i64 8, ptr %17) #7
  call void @llvm.lifetime.end.p0(i64 4, ptr %16) #7
  call void @llvm.lifetime.end.p0(i64 4, ptr %15) #7
  ret void
}