; Function Attrs: null_pointer_is_valid sspstrong uwtable
define internal fastcc void @dissect_multipath_value(ptr noundef %0, ptr noundef %1, ptr noundef %2, i32 noundef range(i32 24, 66070) %3, i32 noundef range(i32 1, 0) %4, i1 noundef zeroext %5, i1 noundef zeroext %6) unnamed_addr #0 {
  %8 = alloca ptr, align 8
  %9 = alloca i32, align 4
  %10 = alloca i32, align 4
  %11 = add i32 %4, %3
  call void @llvm.lifetime.start.p0(i64 8, ptr nonnull %8) #4
  br i1 %6, label %12, label %57

12:                                               ; preds = %7
  %13 = select i1 %5, i32 8, i32 4
  %14 = add nuw nsw i32 %3, %13
  %.not51 = icmp sgt i32 %14, %11
  br i1 %.not51, label %.loopexit, label %.lr.ph

.lr.ph:                                           ; preds = %12
  %15 = select i1 %5, ptr @.str.807, ptr @.str.808
  br label %16

16:                                               ; preds = %.lr.ph, %53
  %.053 = phi i32 [ %3, %.lr.ph ], [ %.3, %53 ]
  %.04652 = phi i32 [ 0, %.lr.ph ], [ %55, %53 ]
  call void @llvm.lifetime.start.p0(i64 4, ptr nonnull %9) #4
  call void @llvm.lifetime.start.p0(i64 4, ptr nonnull %10) #4
  store i32 0, ptr %10, align 4
  %17 = load i32, ptr @ett_multipath, align 4
  %18 = call ptr (ptr, ptr, i32, i32, i32, ptr, ptr, ...) @proto_tree_add_subtree_format(ptr noundef %2, ptr noundef %0, i32 noundef %.053, i32 noundef -1, i32 noundef %17, ptr noundef nonnull %8, ptr noundef nonnull %15, i32 noundef %.04652)
  %19 = load ptr, ptr %8, align 8
  %20 = load i32, ptr @hf_multipath_opcode, align 4
  %21 = call ptr @proto_tree_add_item(ptr noundef %19, i32 noundef %20, ptr noundef %0, i32 noundef %.053, i32 noundef 1, i32 noundef 0)
  %22 = add i32 %.053, 1
  %23 = load ptr, ptr %8, align 8
  %24 = load i32, ptr @hf_subdoc_flags, align 4
  %25 = load i32, ptr @ett_extras_flags, align 4
  %26 = call ptr @proto_tree_add_bitmask(ptr noundef %23, ptr noundef %0, i32 noundef %22, i32 noundef %24, i32 noundef %25, ptr noundef nonnull @subdoc_flags, i32 noundef 0)
  %27 = add i32 %.053, 2
  %28 = load ptr, ptr %8, align 8
  %29 = load i32, ptr @hf_multipath_pathlen, align 4
  %30 = call ptr @proto_tree_add_item_ret_uint(ptr noundef %28, i32 noundef %29, ptr noundef %0, i32 noundef %27, i32 noundef 2, i32 noundef 0, ptr noundef nonnull %9)
  %31 = add i32 %.053, 4
  br i1 %5, label %32, label %37

32:                                               ; preds = %16
  %33 = load ptr, ptr %8, align 8
  %34 = load i32, ptr @hf_multipath_valuelen, align 4
  %35 = call ptr @proto_tree_add_item_ret_uint(ptr noundef %33, i32 noundef %34, ptr noundef %0, i32 noundef %31, i32 noundef 4, i32 noundef 0, ptr noundef nonnull %10)
  %36 = add i32 %.053, 8
  br label %37

37:                                               ; preds = %32, %16
  %.1 = phi i32 [ %36, %32 ], [ %31, %16 ]
  %38 = load i32, ptr %9, align 4
  %.not49 = icmp eq i32 %38, 0
  br i1 %.not49, label %45, label %39

39:                                               ; preds = %37
  %40 = load ptr, ptr %8, align 8
  %41 = load i32, ptr @hf_multipath_path, align 4
  %42 = call ptr @proto_tree_add_item(ptr noundef %40, i32 noundef %41, ptr noundef %0, i32 noundef %.1, i32 noundef %38, i32 noundef 0)
  %43 = load i32, ptr %9, align 4
  %44 = add i32 %43, %.1
  br label %45

45:                                               ; preds = %39, %37
  %.2 = phi i32 [ %44, %39 ], [ %.1, %37 ]
  %46 = load i32, ptr %10, align 4
  %.not50 = icmp eq i32 %46, 0
  br i1 %.not50, label %53, label %47

47:                                               ; preds = %45
  %48 = load ptr, ptr %8, align 8
  %49 = load i32, ptr @hf_multipath_value, align 4
  %50 = call ptr @proto_tree_add_item(ptr noundef %48, i32 noundef %49, ptr noundef %0, i32 noundef %.2, i32 noundef %46, i32 noundef 0)
  %51 = load i32, ptr %10, align 4
  %52 = add i32 %51, %.2
  br label %53

53:                                               ; preds = %47, %45
  %.3 = phi i32 [ %52, %47 ], [ %.2, %45 ]
  %54 = sub i32 %.3, %.053
  call void @proto_item_set_len(ptr noundef %18, i32 noundef %54)
  %55 = add i32 %.04652, 1
  call void @llvm.lifetime.end.p0(i64 4, ptr nonnull %10) #4
  call void @llvm.lifetime.end.p0(i64 4, ptr nonnull %9) #4
  %56 = add i32 %.3, %13
  %.not = icmp sgt i32 %56, %11
  br i1 %.not, label %.loopexit, label %16, !llvm.loop !20

57:                                               ; preds = %7
  br i1 %5, label %58, label %59

58:                                               ; preds = %57
  tail call fastcc void @dissect_multipath_mutation_response(ptr noundef %0, ptr noundef %1, ptr noundef %2, i32 noundef %3, i32 noundef %4)
  br label %.loopexit

59:                                               ; preds = %57
  tail call fastcc void @dissect_multipath_lookup_response(ptr noundef %0, ptr noundef %1, ptr noundef %2, i32 noundef %3, i32 noundef %4)
  br label %.loopexit

.loopexit:                                        ; preds = %53, %12, %58, %59
  call void @llvm.lifetime.end.p0(i64 8, ptr nonnull %8) #4
  ret void
}